; Function Attrs: mustprogress uwtable
define dso_local void @_ZNK11flatbuffers28SimpleFloatConstantGenerator5ValueEfRKNSt7__cxx1112basic_stringIcSt11char_traitsIcESaIcEEE(ptr noalias sret(%"class.std::__cxx11::basic_string") align 8 %agg.result, ptr noundef nonnull align 8 dereferenceable(104) %this, float noundef %v, ptr noundef nonnull align 8 dereferenceable(32) %src) unnamed_addr #0 align 2 {
entry:
  %conv = fpext float %v to double
  %vtable = load ptr, ptr %this, align 8
  %vfn = getelementptr inbounds i8, ptr %vtable, i64 16
  %0 = load ptr, ptr %vfn, align 8
  tail call void %0(ptr sret(%"class.std::__cxx11::basic_string") align 8 %agg.result, ptr noundef nonnull align 8 dereferenceable(104) %this, double noundef %conv, ptr noundef nonnull align 8 dereferenceable(32) %src)
  ret void
}